; ModuleID = '22/102.c'
source_filename = "22/102.c"
target datalayout = "e-m:e-p270:32:32-p271:32:32-p272:64:64-i64:64-f80:128-n8:16:32:64-S128"
target triple = "x86_64-pc-linux-gnu"

@.str = private unnamed_addr constant [5 x i8] c"%d%c\00", align 1
@.str.1 = private unnamed_addr constant [3 x i8] c"No\00", align 1
@.str.2 = private unnamed_addr constant [3 x i8] c"%d\00", align 1

; Function Attrs: noinline nounwind uwtable
define dso_local void @main() #0 {
  %1 = alloca [300 x i32], align 16
  %2 = alloca i32, align 4
  %3 = alloca i32, align 4
  %4 = alloca i32, align 4
  %5 = alloca i32, align 4
  %6 = alloca i32, align 4
  %7 = alloca i32, align 4
  %8 = alloca i32, align 4
  %9 = alloca i8, align 1
  store i32 0, i32* %5, align 4
  store i32 1, i32* %7, align 4
  store i32 0, i32* %2, align 4
  br label %10

10:                                               ; preds = %23, %0
  %11 = load i32, i32* %2, align 4
  %12 = sext i32 %11 to i64
  %13 = getelementptr inbounds [300 x i32], [300 x i32]* %1, i64 0, i64 %12
  %14 = call i32 (i8*, ...) @__isoc99_scanf(i8* getelementptr inbounds ([5 x i8], [5 x i8]* @.str, i64 0, i64 0), i32* %13, i8* %9)
  %15 = load i8, i8* %9, align 1
  %16 = sext i8 %15 to i32
  %17 = icmp ne i32 %16, 44
  br i1 %17, label %18, label %19

18:                                               ; preds = %10
  br label %26

19:                                               ; preds = %10
  %20 = load i32, i32* %5, align 4
  %21 = add nsw i32 %20, 1
  store i32 %21, i32* %5, align 4
  br label %22

22:                                               ; preds = %19
  br label %23

23:                                               ; preds = %22
  %24 = load i32, i32* %2, align 4
  %25 = add nsw i32 %24, 1
  store i32 %25, i32* %2, align 4
  br label %10

26:                                               ; preds = %18
  %27 = getelementptr inbounds [300 x i32], [300 x i32]* %1, i64 0, i64 0
  %28 = load i32, i32* %27, align 16
  store i32 %28, i32* %4, align 4
  store i32 0, i32* %2, align 4
  br label %29

29:                                               ; preds = %42, %26
  %30 = load i32, i32* %2, align 4
  %31 = load i32, i32* %5, align 4
  %32 = icmp slt i32 %30, %31
  br i1 %32, label %33, label %45

33:                                               ; preds = %29
  %34 = load i32, i32* %4, align 4
  %35 = load i32, i32* %2, align 4
  %36 = sext i32 %35 to i64
  %37 = getelementptr inbounds [300 x i32], [300 x i32]* %1, i64 0, i64 %36
  %38 = load i32, i32* %37, align 4
  %39 = icmp ne i32 %34, %38
  br i1 %39, label %40, label %41

40:                                               ; preds = %33
  store i32 0, i32* %7, align 4
  br label %45

41:                                               ; preds = %33
  br label %42

42:                                               ; preds = %41
  %43 = load i32, i32* %2, align 4
  %44 = add nsw i32 %43, 1
  store i32 %44, i32* %2, align 4
  br label %29

45:                                               ; preds = %40, %29
  %46 = load i32, i32* %5, align 4
  %47 = icmp eq i32 %46, 1
  br i1 %47, label %51, label %48

48:                                               ; preds = %45
  %49 = load i32, i32* %7, align 4
  %50 = icmp eq i32 %49, 1
  br i1 %50, label %51, label %53

51:                                               ; preds = %48, %45
  %52 = call i32 (i8*, ...) @printf(i8* getelementptr inbounds ([3 x i8], [3 x i8]* @.str.1, i64 0, i64 0))
  br label %123

53:                                               ; preds = %48
  store i32 0, i32* %2, align 4
  br label %54

54:                                               ; preds = %99, %53
  %55 = load i32, i32* %2, align 4
  %56 = load i32, i32* %5, align 4
  %57 = icmp slt i32 %55, %56
  br i1 %57, label %58, label %102

58:                                               ; preds = %54
  store i32 0, i32* %3, align 4
  br label %59

59:                                               ; preds = %95, %58
  %60 = load i32, i32* %3, align 4
  %61 = load i32, i32* %5, align 4
  %62 = load i32, i32* %2, align 4
  %63 = sub nsw i32 %61, %62
  %64 = icmp slt i32 %60, %63
  br i1 %64, label %65, label %98

65:                                               ; preds = %59
  %66 = load i32, i32* %3, align 4
  %67 = sext i32 %66 to i64
  %68 = getelementptr inbounds [300 x i32], [300 x i32]* %1, i64 0, i64 %67
  %69 = load i32, i32* %68, align 4
  %70 = load i32, i32* %3, align 4
  %71 = add nsw i32 %70, 1
  %72 = sext i32 %71 to i64
  %73 = getelementptr inbounds [300 x i32], [300 x i32]* %1, i64 0, i64 %72
  %74 = load i32, i32* %73, align 4
  %75 = icmp slt i32 %69, %74
  br i1 %75, label %76, label %94

76:                                               ; preds = %65
  %77 = load i32, i32* %3, align 4
  %78 = sext i32 %77 to i64
  %79 = getelementptr inbounds [300 x i32], [300 x i32]* %1, i64 0, i64 %78
  %80 = load i32, i32* %79, align 4
  store i32 %80, i32* %6, align 4
  %81 = load i32, i32* %3, align 4
  %82 = add nsw i32 %81, 1
  %83 = sext i32 %82 to i64
  %84 = getelementptr inbounds [300 x i32], [300 x i32]* %1, i64 0, i64 %83
  %85 = load i32, i32* %84, align 4
  %86 = load i32, i32* %3, align 4
  %87 = sext i32 %86 to i64
  %88 = getelementptr inbounds [300 x i32], [300 x i32]* %1, i64 0, i64 %87
  store i32 %85, i32* %88, align 4
  %89 = load i32, i32* %6, align 4
  %90 = load i32, i32* %3, align 4
  %91 = add nsw i32 %90, 1
  %92 = sext i32 %91 to i64
  %93 = getelementptr inbounds [300 x i32], [300 x i32]* %1, i64 0, i64 %92
  store i32 %89, i32* %93, align 4
  br label %94

94:                                               ; preds = %76, %65
  br label %95

95:                                               ; preds = %94
  %96 = load i32, i32* %3, align 4
  %97 = add nsw i32 %96, 1
  store i32 %97, i32* %3, align 4
  br label %59

98:                                               ; preds = %59
  br label %99

99:                                               ; preds = %98
  %100 = load i32, i32* %2, align 4
  %101 = add nsw i32 %100, 1
  store i32 %101, i32* %2, align 4
  br label %54

102:                                              ; preds = %54
  %103 = getelementptr inbounds [300 x i32], [300 x i32]* %1, i64 0, i64 0
  %104 = load i32, i32* %103, align 16
  store i32 %104, i32* %8, align 4
  store i32 0, i32* %2, align 4
  br label %105

105:                                              ; preds = %119, %102
  %106 = load i32, i32* %2, align 4
  %107 = sext i32 %106 to i64
  %108 = getelementptr inbounds [300 x i32], [300 x i32]* %1, i64 0, i64 %107
  %109 = load i32, i32* %108, align 4
  %110 = load i32, i32* %8, align 4
  %111 = icmp slt i32 %109, %110
  br i1 %111, label %112, label %118

112:                                              ; preds = %105
  %113 = load i32, i32* %2, align 4
  %114 = sext i32 %113 to i64
  %115 = getelementptr inbounds [300 x i32], [300 x i32]* %1, i64 0, i64 %114
  %116 = load i32, i32* %115, align 4
  %117 = call i32 (i8*, ...) @printf(i8* getelementptr inbounds ([3 x i8], [3 x i8]* @.str.2, i64 0, i64 0), i32 %116)
  br label %122

118:                                              ; preds = %105
  br label %119

119:                                              ; preds = %118
  %120 = load i32, i32* %2, align 4
  %121 = add nsw i32 %120, 1
  store i32 %121, i32* %2, align 4
  br label %105

122:                                              ; preds = %112
  br label %123

123:                                              ; preds = %122, %51
  ret void
}

declare dso_local i32 @__isoc99_scanf(i8*, ...) #1

declare dso_local i32 @printf(i8*, ...) #1


!llvm.module.flags = !{!0}
!llvm.ident = !{!1}

!0 = !{i32 1, !"wchar_size", i32 4}
!1 = !{!"clang version 10.0.0-4ubuntu1 "}
